target datalayout = "e-m:e-p270:32:32-p271:32:32-p272:64:64-i64:64-i128:128-f80:128-n8:16:32:64-S128"
target triple = "x86_64-unknown-linux-gnu"

%"struct.arrow_vendored::fast_float::parse_options" = type <{ i32, i8, [3 x i8] }>
%"struct.arrow_vendored::fast_float::from_chars_result" = type { ptr, i32 }

; Function Attrs: mustprogress nounwind uwtable
define linkonce_odr void @_ZN14arrow_vendored10fast_float13parse_optionsC2ENS0_12chars_formatEc(ptr noundef nonnull align 4 dereferenceable(5) %this, i32 noundef %fmt, i8 noundef signext %dot) unnamed_addr #1 comdat align 2 {
entry:
  %this.addr = alloca ptr, align 8
  %fmt.addr = alloca i32, align 4
  %dot.addr = alloca i8, align 1
  store ptr %this, ptr %this.addr, align 8
  store i32 %fmt, ptr %fmt.addr, align 4
  store i8 %dot, ptr %dot.addr, align 1
  %this1 = load ptr, ptr %this.addr, align 8
  %format = getelementptr inbounds %"struct.arrow_vendored::fast_float::parse_options", ptr %this1, i32 0, i32 0
  %0 = load i32, ptr %fmt.addr, align 4
  store i32 %0, ptr %format, align 4
  %decimal_point = getelementptr inbounds %"struct.arrow_vendored::fast_float::parse_options", ptr %this1, i32 0, i32 1
  %1 = load i8, ptr %dot.addr, align 1
  store i8 %1, ptr %decimal_point, align 4
  ret void
}

; Function Attrs: mustprogress uwtable
define noundef zeroext i1 @_ZN5arrow8internal13StringToFloatEPKcmcPd(ptr noundef %s, i64 noundef %length, i8 noundef signext %decimal_point, ptr noundef %out) #0 {
entry:
  %s.addr = alloca ptr, align 8
  %length.addr = alloca i64, align 8
  %decimal_point.addr = alloca i8, align 1
  %out.addr = alloca ptr, align 8
  %options = alloca %"struct.arrow_vendored::fast_float::parse_options", align 4
  %res = alloca %"struct.arrow_vendored::fast_float::from_chars_result", align 8
  %agg.tmp = alloca %"struct.arrow_vendored::fast_float::parse_options", align 4
  store ptr %s, ptr %s.addr, align 8
  store i64 %length, ptr %length.addr, align 8
  store i8 %decimal_point, ptr %decimal_point.addr, align 1
  store ptr %out, ptr %out.addr, align 8
  %0 = load i8, ptr %decimal_point.addr, align 1
  call void @_ZN14arrow_vendored10fast_float13parse_optionsC2ENS0_12chars_formatEc(ptr noundef nonnull align 4 dereferenceable(5) %options, i32 noundef 5, i8 noundef signext %0)
  %1 = load ptr, ptr %s.addr, align 8
  %2 = load ptr, ptr %s.addr, align 8
  %3 = load i64, ptr %length.addr, align 8
  %add.ptr = getelementptr inbounds i8, ptr %2, i64 %3
  %4 = load ptr, ptr %out.addr, align 8
  call void @llvm.memcpy.p0.p0.i64(ptr align 4 %agg.tmp, ptr align 4 %options, i64 8, i1 false)
  %5 = load i64, ptr %agg.tmp, align 4
  %call = call { ptr, i32 } @_ZN14arrow_vendored10fast_float19from_chars_advancedIdEENS0_17from_chars_resultEPKcS4_RT_NS0_13parse_optionsE(ptr noundef %1, ptr noundef %add.ptr, ptr noundef nonnull align 8 dereferenceable(8) %4, i64 %5) #13
  %6 = getelementptr inbounds { ptr, i32 }, ptr %res, i32 0, i32 0
  %7 = extractvalue { ptr, i32 } %call, 0
  store ptr %7, ptr %6, align 8
  %8 = getelementptr inbounds { ptr, i32 }, ptr %res, i32 0, i32 1
  %9 = extractvalue { ptr, i32 } %call, 1
  store i32 %9, ptr %8, align 8
  %ec = getelementptr inbounds %"struct.arrow_vendored::fast_float::from_chars_result", ptr %res, i32 0, i32 1
  %10 = load i32, ptr %ec, align 8
  %cmp = icmp eq i32 %10, 0
  br i1 %cmp, label %land.rhs, label %land.end

land.rhs:                                         ; preds = %entry
  %ptr = getelementptr inbounds %"struct.arrow_vendored::fast_float::from_chars_result", ptr %res, i32 0, i32 0
  %11 = load ptr, ptr %ptr, align 8
  %12 = load ptr, ptr %s.addr, align 8
  %13 = load i64, ptr %length.addr, align 8
  %add.ptr1 = getelementptr inbounds i8, ptr %12, i64 %13
  %cmp2 = icmp eq ptr %11, %add.ptr1
  br label %land.end

land.end:                                         ; preds = %land.rhs, %entry
  %14 = phi i1 [ false, %entry ], [ %cmp2, %land.rhs ]
  ret i1 %14
}